target datalayout = "e-m:e-p270:32:32-p271:32:32-p272:64:64-i64:64-i128:128-f80:128-n8:16:32:64-S128"
target triple = "x86_64-pc-linux-gnu"

%struct.anon = type { double, double }
%struct._generic_N_Vector = type { ptr, ptr, ptr }
%struct._N_VectorContent_Serial = type { i64, i32, ptr }

; Function Attrs: nounwind uwtable
define internal i32 @fQB1(double noundef %0, ptr noundef %1, ptr noundef %2, ptr noundef %3, ptr noundef %4, ptr noundef %5) #0 {
  %7 = alloca double, align 8
  %8 = alloca ptr, align 8
  %9 = alloca ptr, align 8
  %10 = alloca ptr, align 8
  %11 = alloca ptr, align 8
  %12 = alloca ptr, align 8
  %13 = alloca ptr, align 8
  %14 = alloca double, align 8
  %15 = alloca double, align 8
  %16 = alloca double, align 8
  %17 = alloca double, align 8
  %18 = alloca double, align 8
  %19 = alloca double, align 8
  %20 = alloca double, align 8
  %21 = alloca double, align 8
  %22 = alloca double, align 8
  %23 = alloca double, align 8
  %24 = alloca double, align 8
  store double %0, ptr %7, align 8, !tbaa !24
  store ptr %1, ptr %8, align 8, !tbaa !12
  store ptr %2, ptr %9, align 8, !tbaa !27
  store ptr %3, ptr %10, align 8, !tbaa !12
  store ptr %4, ptr %11, align 8, !tbaa !12
  store ptr %5, ptr %12, align 8, !tbaa !11
  call void @llvm.lifetime.start.p0(i64 8, ptr %13) #6
  call void @llvm.lifetime.start.p0(i64 8, ptr %14) #6
  call void @llvm.lifetime.start.p0(i64 8, ptr %15) #6
  call void @llvm.lifetime.start.p0(i64 8, ptr %16) #6
  call void @llvm.lifetime.start.p0(i64 8, ptr %17) #6
  call void @llvm.lifetime.start.p0(i64 8, ptr %18) #6
  call void @llvm.lifetime.start.p0(i64 8, ptr %19) #6
  call void @llvm.lifetime.start.p0(i64 8, ptr %20) #6
  call void @llvm.lifetime.start.p0(i64 8, ptr %21) #6
  call void @llvm.lifetime.start.p0(i64 8, ptr %22) #6
  call void @llvm.lifetime.start.p0(i64 8, ptr %23) #6
  call void @llvm.lifetime.start.p0(i64 8, ptr %24) #6
  %25 = load ptr, ptr %12, align 8, !tbaa !11
  store ptr %25, ptr %13, align 8, !tbaa !11
  %26 = load ptr, ptr %13, align 8, !tbaa !11
  %27 = getelementptr inbounds nuw %struct.anon, ptr %26, i32 0, i32 1
  %28 = load double, ptr %27, align 8, !tbaa !21
  store double %28, ptr %14, align 8, !tbaa !24
  %29 = load ptr, ptr %8, align 8, !tbaa !12
  %30 = getelementptr inbounds nuw %struct._generic_N_Vector, ptr %29, i32 0, i32 0
  %31 = load ptr, ptr %30, align 8, !tbaa !29
  %32 = getelementptr inbounds nuw %struct._N_VectorContent_Serial, ptr %31, i32 0, i32 2
  %33 = load ptr, ptr %32, align 8, !tbaa !32
  %34 = getelementptr inbounds double, ptr %33, i64 0
  %35 = load double, ptr %34, align 8, !tbaa !24
  store double %35, ptr %15, align 8, !tbaa !24
  %36 = load ptr, ptr %8, align 8, !tbaa !12
  %37 = getelementptr inbounds nuw %struct._generic_N_Vector, ptr %36, i32 0, i32 0
  %38 = load ptr, ptr %37, align 8, !tbaa !29
  %39 = getelementptr inbounds nuw %struct._N_VectorContent_Serial, ptr %38, i32 0, i32 2
  %40 = load ptr, ptr %39, align 8, !tbaa !32
  %41 = getelementptr inbounds double, ptr %40, i64 1
  %42 = load double, ptr %41, align 8, !tbaa !24
  store double %42, ptr %16, align 8, !tbaa !24
  %43 = load ptr, ptr %8, align 8, !tbaa !12
  %44 = getelementptr inbounds nuw %struct._generic_N_Vector, ptr %43, i32 0, i32 0
  %45 = load ptr, ptr %44, align 8, !tbaa !29
  %46 = getelementptr inbounds nuw %struct._N_VectorContent_Serial, ptr %45, i32 0, i32 2
  %47 = load ptr, ptr %46, align 8, !tbaa !32
  %48 = getelementptr inbounds double, ptr %47, i64 2
  %49 = load double, ptr %48, align 8, !tbaa !24
  store double %49, ptr %17, align 8, !tbaa !24
  %50 = load ptr, ptr %9, align 8, !tbaa !27
  %51 = getelementptr inbounds ptr, ptr %50, i64 0
  %52 = load ptr, ptr %51, align 8, !tbaa !12
  %53 = getelementptr inbounds nuw %struct._generic_N_Vector, ptr %52, i32 0, i32 0
  %54 = load ptr, ptr %53, align 8, !tbaa !29
  %55 = getelementptr inbounds nuw %struct._N_VectorContent_Serial, ptr %54, i32 0, i32 2
  %56 = load ptr, ptr %55, align 8, !tbaa !32
  %57 = getelementptr inbounds double, ptr %56, i64 0
  %58 = load double, ptr %57, align 8, !tbaa !24
  store double %58, ptr %18, align 8, !tbaa !24
  %59 = load ptr, ptr %9, align 8, !tbaa !27
  %60 = getelementptr inbounds ptr, ptr %59, i64 0
  %61 = load ptr, ptr %60, align 8, !tbaa !12
  %62 = getelementptr inbounds nuw %struct._generic_N_Vector, ptr %61, i32 0, i32 0
  %63 = load ptr, ptr %62, align 8, !tbaa !29
  %64 = getelementptr inbounds nuw %struct._N_VectorContent_Serial, ptr %63, i32 0, i32 2
  %65 = load ptr, ptr %64, align 8, !tbaa !32
  %66 = getelementptr inbounds double, ptr %65, i64 1
  %67 = load double, ptr %66, align 8, !tbaa !24
  store double %67, ptr %19, align 8, !tbaa !24
  %68 = load ptr, ptr %9, align 8, !tbaa !27
  %69 = getelementptr inbounds ptr, ptr %68, i64 0
  %70 = load ptr, ptr %69, align 8, !tbaa !12
  %71 = getelementptr inbounds nuw %struct._generic_N_Vector, ptr %70, i32 0, i32 0
  %72 = load ptr, ptr %71, align 8, !tbaa !29
  %73 = getelementptr inbounds nuw %struct._N_VectorContent_Serial, ptr %72, i32 0, i32 2
  %74 = load ptr, ptr %73, align 8, !tbaa !32
  %75 = getelementptr inbounds double, ptr %74, i64 2
  %76 = load double, ptr %75, align 8, !tbaa !24
  store double %76, ptr %20, align 8, !tbaa !24
  %77 = load ptr, ptr %10, align 8, !tbaa !12
  %78 = getelementptr inbounds nuw %struct._generic_N_Vector, ptr %77, i32 0, i32 0
  %79 = load ptr, ptr %78, align 8, !tbaa !29
  %80 = getelementptr inbounds nuw %struct._N_VectorContent_Serial, ptr %79, i32 0, i32 2
  %81 = load ptr, ptr %80, align 8, !tbaa !32
  %82 = getelementptr inbounds double, ptr %81, i64 0
  %83 = load double, ptr %82, align 8, !tbaa !24
  store double %83, ptr %21, align 8, !tbaa !24
  %84 = load ptr, ptr %10, align 8, !tbaa !12
  %85 = getelementptr inbounds nuw %struct._generic_N_Vector, ptr %84, i32 0, i32 0
  %86 = load ptr, ptr %85, align 8, !tbaa !29
  %87 = getelementptr inbounds nuw %struct._N_VectorContent_Serial, ptr %86, i32 0, i32 2
  %88 = load ptr, ptr %87, align 8, !tbaa !32
  %89 = getelementptr inbounds double, ptr %88, i64 2
  %90 = load double, ptr %89, align 8, !tbaa !24
  store double %90, ptr %22, align 8, !tbaa !24
  %91 = load ptr, ptr %10, align 8, !tbaa !12
  %92 = getelementptr inbounds nuw %struct._generic_N_Vector, ptr %91, i32 0, i32 0
  %93 = load ptr, ptr %92, align 8, !tbaa !29
  %94 = getelementptr inbounds nuw %struct._N_VectorContent_Serial, ptr %93, i32 0, i32 2
  %95 = load ptr, ptr %94, align 8, !tbaa !32
  %96 = getelementptr inbounds double, ptr %95, i64 3
  %97 = load double, ptr %96, align 8, !tbaa !24
  store double %97, ptr %23, align 8, !tbaa !24
  %98 = load ptr, ptr %10, align 8, !tbaa !12
  %99 = getelementptr inbounds nuw %struct._generic_N_Vector, ptr %98, i32 0, i32 0
  %100 = load ptr, ptr %99, align 8, !tbaa !29
  %101 = getelementptr inbounds nuw %struct._N_VectorContent_Serial, ptr %100, i32 0, i32 2
  %102 = load ptr, ptr %101, align 8, !tbaa !32
  %103 = getelementptr inbounds double, ptr %102, i64 5
  %104 = load double, ptr %103, align 8, !tbaa !24
  store double %104, ptr %24, align 8, !tbaa !24
  %105 = load double, ptr %15, align 8, !tbaa !24
  %106 = fneg double %105
  %107 = load double, ptr %15, align 8, !tbaa !24
  %108 = fmul double %106, %107
  %109 = load double, ptr %21, align 8, !tbaa !24
  %110 = fmul double %108, %109
  %111 = load ptr, ptr %11, align 8, !tbaa !12
  %112 = getelementptr inbounds nuw %struct._generic_N_Vector, ptr %111, i32 0, i32 0
  %113 = load ptr, ptr %112, align 8, !tbaa !29
  %114 = getelementptr inbounds nuw %struct._N_VectorContent_Serial, ptr %113, i32 0, i32 2
  %115 = load ptr, ptr %114, align 8, !tbaa !32
  %116 = getelementptr inbounds double, ptr %115, i64 0
  store double %110, ptr %116, align 8, !tbaa !24
  %117 = load double, ptr %14, align 8, !tbaa !24
  %118 = fmul double -2.000000e+00, %117
  %119 = load double, ptr %16, align 8, !tbaa !24
  %120 = fmul double %118, %119
  %121 = load double, ptr %17, align 8, !tbaa !24
  %122 = fmul double %120, %121
  %123 = load double, ptr %22, align 8, !tbaa !24
  %124 = fmul double %122, %123
  %125 = load ptr, ptr %11, align 8, !tbaa !12
  %126 = getelementptr inbounds nuw %struct._generic_N_Vector, ptr %125, i32 0, i32 0
  %127 = load ptr, ptr %126, align 8, !tbaa !29
  %128 = getelementptr inbounds nuw %struct._N_VectorContent_Serial, ptr %127, i32 0, i32 2
  %129 = load ptr, ptr %128, align 8, !tbaa !32
  %130 = getelementptr inbounds double, ptr %129, i64 1
  store double %124, ptr %130, align 8, !tbaa !24
  %131 = load double, ptr %15, align 8, !tbaa !24
  %132 = fneg double %131
  %133 = load double, ptr %15, align 8, !tbaa !24
  %134 = fmul double %132, %133
  %135 = load double, ptr %23, align 8, !tbaa !24
  %136 = load double, ptr %21, align 8, !tbaa !24
  %137 = fmul double %136, 2.000000e+00
  %138 = load double, ptr %15, align 8, !tbaa !24
  %139 = fmul double %137, %138
  %140 = load double, ptr %18, align 8, !tbaa !24
  %141 = fmul double %139, %140
  %142 = fneg double %141
  %143 = call double @llvm.fmuladd.f64(double %134, double %135, double %142)
  %144 = load ptr, ptr %11, align 8, !tbaa !12
  %145 = getelementptr inbounds nuw %struct._generic_N_Vector, ptr %144, i32 0, i32 0
  %146 = load ptr, ptr %145, align 8, !tbaa !29
  %147 = getelementptr inbounds nuw %struct._N_VectorContent_Serial, ptr %146, i32 0, i32 2
  %148 = load ptr, ptr %147, align 8, !tbaa !32
  %149 = getelementptr inbounds double, ptr %148, i64 2
  store double %143, ptr %149, align 8, !tbaa !24
  %150 = load double, ptr %14, align 8, !tbaa !24
  %151 = fmul double -2.000000e+00, %150
  %152 = load double, ptr %16, align 8, !tbaa !24
  %153 = fmul double %151, %152
  %154 = load double, ptr %17, align 8, !tbaa !24
  %155 = fmul double %153, %154
  %156 = load double, ptr %24, align 8, !tbaa !24
  %157 = load double, ptr %22, align 8, !tbaa !24
  %158 = fmul double %157, 2.000000e+00
  %159 = load double, ptr %14, align 8, !tbaa !24
  %160 = load double, ptr %17, align 8, !tbaa !24
  %161 = fmul double %159, %160
  %162 = load double, ptr %19, align 8, !tbaa !24
  %163 = load double, ptr %14, align 8, !tbaa !24
  %164 = load double, ptr %16, align 8, !tbaa !24
  %165 = fmul double %163, %164
  %166 = load double, ptr %20, align 8, !tbaa !24
  %167 = fmul double %165, %166
  %168 = call double @llvm.fmuladd.f64(double %161, double %162, double %167)
  %169 = fmul double %158, %168
  %170 = fneg double %169
  %171 = call double @llvm.fmuladd.f64(double %155, double %156, double %170)
  %172 = load ptr, ptr %11, align 8, !tbaa !12
  %173 = getelementptr inbounds nuw %struct._generic_N_Vector, ptr %172, i32 0, i32 0
  %174 = load ptr, ptr %173, align 8, !tbaa !29
  %175 = getelementptr inbounds nuw %struct._N_VectorContent_Serial, ptr %174, i32 0, i32 2
  %176 = load ptr, ptr %175, align 8, !tbaa !32
  %177 = getelementptr inbounds double, ptr %176, i64 3
  store double %171, ptr %177, align 8, !tbaa !24
  call void @llvm.lifetime.end.p0(i64 8, ptr %24) #6
  call void @llvm.lifetime.end.p0(i64 8, ptr %23) #6
  call void @llvm.lifetime.end.p0(i64 8, ptr %22) #6
  call void @llvm.lifetime.end.p0(i64 8, ptr %21) #6
  call void @llvm.lifetime.end.p0(i64 8, ptr %20) #6
  call void @llvm.lifetime.end.p0(i64 8, ptr %19) #6
  call void @llvm.lifetime.end.p0(i64 8, ptr %18) #6
  call void @llvm.lifetime.end.p0(i64 8, ptr %17) #6
  call void @llvm.lifetime.end.p0(i64 8, ptr %16) #6
  call void @llvm.lifetime.end.p0(i64 8, ptr %15) #6
  call void @llvm.lifetime.end.p0(i64 8, ptr %14) #6
  call void @llvm.lifetime.end.p0(i64 8, ptr %13) #6
  ret i32 0
}