; Function Attrs: mustprogress nofree norecurse nosync nounwind willreturn memory(readwrite, inaccessiblemem: none) uwtable
define internal noundef i32 @fQB1(double %0, ptr noundef readonly captures(none) %1, ptr noundef readonly captures(none) %2, ptr noundef readonly captures(none) %3, ptr noundef readonly captures(none) %4, ptr noundef readonly captures(none) %5) #4 {
  %7 = getelementptr inbounds nuw i8, ptr %5, i64 8
  %8 = load double, ptr %7, align 8, !tbaa !11
  %9 = load ptr, ptr %1, align 8, !tbaa !18
  %10 = getelementptr inbounds nuw i8, ptr %9, i64 16
  %11 = load ptr, ptr %10, align 8, !tbaa !21
  %12 = load double, ptr %11, align 8, !tbaa !26
  %13 = getelementptr inbounds nuw i8, ptr %11, i64 8
  %14 = load double, ptr %13, align 8, !tbaa !26
  %15 = getelementptr inbounds nuw i8, ptr %11, i64 16
  %16 = load double, ptr %15, align 8, !tbaa !26
  %17 = load ptr, ptr %2, align 8, !tbaa !16
  %18 = load ptr, ptr %17, align 8, !tbaa !18
  %19 = getelementptr inbounds nuw i8, ptr %18, i64 16
  %20 = load ptr, ptr %19, align 8, !tbaa !21
  %21 = load double, ptr %20, align 8, !tbaa !26
  %22 = getelementptr inbounds nuw i8, ptr %20, i64 8
  %23 = load double, ptr %22, align 8, !tbaa !26
  %24 = getelementptr inbounds nuw i8, ptr %20, i64 16
  %25 = load double, ptr %24, align 8, !tbaa !26
  %26 = load ptr, ptr %3, align 8, !tbaa !18
  %27 = getelementptr inbounds nuw i8, ptr %26, i64 16
  %28 = load ptr, ptr %27, align 8, !tbaa !21
  %29 = load double, ptr %28, align 8, !tbaa !26
  %30 = getelementptr inbounds nuw i8, ptr %28, i64 16
  %31 = load double, ptr %30, align 8, !tbaa !26
  %32 = getelementptr inbounds nuw i8, ptr %28, i64 24
  %33 = load double, ptr %32, align 8, !tbaa !26
  %34 = getelementptr inbounds nuw i8, ptr %28, i64 40
  %35 = load double, ptr %34, align 8, !tbaa !26
  %36 = fneg double %12
  %37 = fmul double %12, %36
  %38 = fmul double %37, %29
  %39 = load ptr, ptr %4, align 8, !tbaa !18
  %40 = getelementptr inbounds nuw i8, ptr %39, i64 16
  %41 = load ptr, ptr %40, align 8, !tbaa !21
  store double %38, ptr %41, align 8, !tbaa !26
  %42 = fmul double %8, -2.000000e+00
  %43 = fmul double %42, %14
  %44 = fmul double %43, %16
  %45 = fmul double %44, %31
  %46 = getelementptr inbounds nuw i8, ptr %41, i64 8
  store double %45, ptr %46, align 8, !tbaa !26
  %47 = fmul double %29, 2.000000e+00
  %48 = fmul double %12, %47
  %49 = fneg double %21
  %50 = fmul double %48, %49
  %51 = tail call double @llvm.fmuladd.f64(double %37, double %33, double %50)
  %52 = getelementptr inbounds nuw i8, ptr %41, i64 16
  store double %51, ptr %52, align 8, !tbaa !26
  %53 = fmul double %31, 2.000000e+00
  %54 = fmul double %8, %16
  %55 = fmul double %8, %14
  %56 = fmul double %55, %25
  %57 = tail call double @llvm.fmuladd.f64(double %54, double %23, double %56)
  %58 = fneg double %57
  %59 = fmul double %53, %58
  %60 = tail call double @llvm.fmuladd.f64(double %44, double %35, double %59)
  %61 = getelementptr inbounds nuw i8, ptr %41, i64 24
  store double %60, ptr %61, align 8, !tbaa !26
  ret i32 0
}